; Function Attrs: mustprogress nounwind uwtable
define internal noundef zeroext i1 @"_ZNSt17_Function_handlerIFvRN4llvm16MachineIRBuilderEEZNS0_14CombinerHelper23matchFoldAPlusC1MinusC2ERKNS0_12MachineInstrERSt8functionIS3_EE3$_0E10_M_managerERSt9_Any_dataRKSD_St18_Manager_operation"(ptr nocapture noundef nonnull align 8 dereferenceable(16) %0, ptr nocapture noundef nonnull readonly align 8 dereferenceable(16) %1, i32 noundef %2) #0 align 2 {
  %.val = load ptr, ptr %1, align 8
  switch i32 %2, label %"_ZNSt14_Function_base13_Base_managerIZN4llvm14CombinerHelper23matchFoldAPlusC1MinusC2ERKNS1_12MachineInstrERSt8functionIFvRNS1_16MachineIRBuilderEEEE3$_0E10_M_managerERSt9_Any_dataRKSE_St18_Manager_operation.exit" [
    i32 1, label %4
    i32 0, label %5
    i32 3, label %29
    i32 2, label %6
  ]

4:                                                ; preds = %3
  store ptr %.val, ptr %0, align 8
  br label %"_ZNSt14_Function_base13_Base_managerIZN4llvm14CombinerHelper23matchFoldAPlusC1MinusC2ERKNS1_12MachineInstrERSt8functionIFvRNS1_16MachineIRBuilderEEEE3$_0E10_M_managerERSt9_Any_dataRKSE_St18_Manager_operation.exit"

5:                                                ; preds = %3
  store ptr null, ptr %0, align 8
  br label %"_ZNSt14_Function_base13_Base_managerIZN4llvm14CombinerHelper23matchFoldAPlusC1MinusC2ERKNS1_12MachineInstrERSt8functionIFvRNS1_16MachineIRBuilderEEEE3$_0E10_M_managerERSt9_Any_dataRKSE_St18_Manager_operation.exit"

6:                                                ; preds = %3
  %7 = tail call noalias noundef nonnull dereferenceable(56) ptr @_Znwm(i64 noundef 56) #28
  %8 = load i64, ptr %.val, align 8
  store i64 %8, ptr %7, align 8
  %9 = getelementptr inbounds nuw i8, ptr %7, i64 8
  %10 = getelementptr inbounds nuw i8, ptr %.val, i64 8
  %11 = getelementptr inbounds i8, ptr %7, i64 16
  %12 = getelementptr inbounds i8, ptr %.val, i64 16
  %13 = load i32, ptr %12, align 8
  store i32 %13, ptr %11, align 8
  %14 = icmp ult i32 %13, 65
  br i1 %14, label %15, label %17

15:                                               ; preds = %6
  %16 = load i64, ptr %10, align 8
  store i64 %16, ptr %9, align 8
  br label %_ZN4llvm5APIntC2ERKS0_.exit.i.i.i.i

17:                                               ; preds = %6
  tail call void @_ZN4llvm5APInt12initSlowCaseERKS0_(ptr noundef nonnull align 8 dereferenceable(12) %9, ptr noundef nonnull align 8 dereferenceable(12) %10) #27
  br label %_ZN4llvm5APIntC2ERKS0_.exit.i.i.i.i

_ZN4llvm5APIntC2ERKS0_.exit.i.i.i.i:              ; preds = %17, %15
  %18 = getelementptr inbounds nuw i8, ptr %7, i64 24
  %19 = getelementptr inbounds nuw i8, ptr %.val, i64 24
  %20 = getelementptr inbounds i8, ptr %7, i64 32
  %21 = getelementptr inbounds i8, ptr %.val, i64 32
  %22 = load i32, ptr %21, align 8
  store i32 %22, ptr %20, align 8
  %23 = icmp ult i32 %22, 65
  br i1 %23, label %24, label %26

24:                                               ; preds = %_ZN4llvm5APIntC2ERKS0_.exit.i.i.i.i
  %25 = load i64, ptr %19, align 8
  store i64 %25, ptr %18, align 8
  br label %"_ZNSt14_Function_base13_Base_managerIZN4llvm14CombinerHelper23matchFoldAPlusC1MinusC2ERKNS1_12MachineInstrERSt8functionIFvRNS1_16MachineIRBuilderEEEE3$_0E15_M_init_functorIRKSC_EEvRSt9_Any_dataOT_.exit.i"

26:                                               ; preds = %_ZN4llvm5APIntC2ERKS0_.exit.i.i.i.i
  tail call void @_ZN4llvm5APInt12initSlowCaseERKS0_(ptr noundef nonnull align 8 dereferenceable(12) %18, ptr noundef nonnull align 8 dereferenceable(12) %19) #27
  br label %"_ZNSt14_Function_base13_Base_managerIZN4llvm14CombinerHelper23matchFoldAPlusC1MinusC2ERKNS1_12MachineInstrERSt8functionIFvRNS1_16MachineIRBuilderEEEE3$_0E15_M_init_functorIRKSC_EEvRSt9_Any_dataOT_.exit.i"

"_ZNSt14_Function_base13_Base_managerIZN4llvm14CombinerHelper23matchFoldAPlusC1MinusC2ERKNS1_12MachineInstrERSt8functionIFvRNS1_16MachineIRBuilderEEEE3$_0E15_M_init_functorIRKSC_EEvRSt9_Any_dataOT_.exit.i": ; preds = %26, %24
  %27 = getelementptr inbounds nuw i8, ptr %7, i64 40
  %28 = getelementptr inbounds nuw i8, ptr %.val, i64 40
  tail call void @llvm.memcpy.p0.p0.i64(ptr noundef nonnull align 8 dereferenceable(16) %27, ptr noundef nonnull align 8 dereferenceable(16) %28, i64 16, i1 false)
  store ptr %7, ptr %0, align 8
  br label %"_ZNSt14_Function_base13_Base_managerIZN4llvm14CombinerHelper23matchFoldAPlusC1MinusC2ERKNS1_12MachineInstrERSt8functionIFvRNS1_16MachineIRBuilderEEEE3$_0E10_M_managerERSt9_Any_dataRKSE_St18_Manager_operation.exit"

29:                                               ; preds = %3
  %.val6.i = load ptr, ptr %0, align 8
  %30 = icmp eq ptr %.val6.i, null
  br i1 %30, label %"_ZNSt14_Function_base13_Base_managerIZN4llvm14CombinerHelper23matchFoldAPlusC1MinusC2ERKNS1_12MachineInstrERSt8functionIFvRNS1_16MachineIRBuilderEEEE3$_0E10_M_managerERSt9_Any_dataRKSE_St18_Manager_operation.exit", label %31

31:                                               ; preds = %29
  %32 = getelementptr inbounds i8, ptr %.val6.i, i64 32
  %33 = load i32, ptr %32, align 8
  %34 = icmp ugt i32 %33, 64
  br i1 %34, label %35, label %_ZN4llvm5APIntD2Ev.exit.i.i.i

35:                                               ; preds = %31
  %36 = getelementptr inbounds nuw i8, ptr %.val6.i, i64 24
  %37 = load ptr, ptr %36, align 8
  %38 = icmp eq ptr %37, null
  br i1 %38, label %_ZN4llvm5APIntD2Ev.exit.i.i.i, label %39

39:                                               ; preds = %35
  tail call void @_ZdaPv(ptr noundef nonnull %37) #31
  br label %_ZN4llvm5APIntD2Ev.exit.i.i.i

_ZN4llvm5APIntD2Ev.exit.i.i.i:                    ; preds = %39, %35, %31
  %40 = getelementptr inbounds i8, ptr %.val6.i, i64 16
  %41 = load i32, ptr %40, align 8
  %42 = icmp ugt i32 %41, 64
  br i1 %42, label %43, label %"_ZZN4llvm14CombinerHelper23matchFoldAPlusC1MinusC2ERKNS_12MachineInstrERSt8functionIFvRNS_16MachineIRBuilderEEEEN3$_0D2Ev.exit.i.i"

43:                                               ; preds = %_ZN4llvm5APIntD2Ev.exit.i.i.i
  %44 = getelementptr inbounds nuw i8, ptr %.val6.i, i64 8
  %45 = load ptr, ptr %44, align 8
  %46 = icmp eq ptr %45, null
  br i1 %46, label %"_ZZN4llvm14CombinerHelper23matchFoldAPlusC1MinusC2ERKNS_12MachineInstrERSt8functionIFvRNS_16MachineIRBuilderEEEEN3$_0D2Ev.exit.i.i", label %47

47:                                               ; preds = %43
  tail call void @_ZdaPv(ptr noundef nonnull %45) #31
  br label %"_ZZN4llvm14CombinerHelper23matchFoldAPlusC1MinusC2ERKNS_12MachineInstrERSt8functionIFvRNS_16MachineIRBuilderEEEEN3$_0D2Ev.exit.i.i"

"_ZZN4llvm14CombinerHelper23matchFoldAPlusC1MinusC2ERKNS_12MachineInstrERSt8functionIFvRNS_16MachineIRBuilderEEEEN3$_0D2Ev.exit.i.i": ; preds = %47, %43, %_ZN4llvm5APIntD2Ev.exit.i.i.i
  tail call void @_ZdlPvm(ptr noundef nonnull %.val6.i, i64 noundef 56) #31
  br label %"_ZNSt14_Function_base13_Base_managerIZN4llvm14CombinerHelper23matchFoldAPlusC1MinusC2ERKNS1_12MachineInstrERSt8functionIFvRNS1_16MachineIRBuilderEEEE3$_0E10_M_managerERSt9_Any_dataRKSE_St18_Manager_operation.exit"

"_ZNSt14_Function_base13_Base_managerIZN4llvm14CombinerHelper23matchFoldAPlusC1MinusC2ERKNS1_12MachineInstrERSt8functionIFvRNS1_16MachineIRBuilderEEEE3$_0E10_M_managerERSt9_Any_dataRKSE_St18_Manager_operation.exit": ; preds = %3, %"_ZZN4llvm14CombinerHelper23matchFoldAPlusC1MinusC2ERKNS_12MachineInstrERSt8functionIFvRNS_16MachineIRBuilderEEEEN3$_0D2Ev.exit.i.i", %29, %"_ZNSt14_Function_base13_Base_managerIZN4llvm14CombinerHelper23matchFoldAPlusC1MinusC2ERKNS1_12MachineInstrERSt8functionIFvRNS1_16MachineIRBuilderEEEE3$_0E15_M_init_functorIRKSC_EEvRSt9_Any_dataOT_.exit.i", %5, %4
  ret i1 false
}